target datalayout = "e-m:e-p270:32:32-p271:32:32-p272:64:64-i64:64-i128:128-f80:128-n8:16:32:64-S128"
target triple = "x86_64-unknown-linux-gnu"

%struct.ecc_point = type { [1 x %struct.sp_int], [1 x %struct.sp_int], [1 x %struct.sp_int] }
%struct.sp_int = type { i32, i32, [129 x i64] }

; Function Attrs: nounwind uwtable
define internal void @wc_ecc_del_point_ex(ptr noundef %p, ptr noundef %heap) #0 {
entry:
  %p.addr = alloca ptr, align 8
  %heap.addr = alloca ptr, align 8
  %xp = alloca ptr, align 8
  store ptr %p, ptr %p.addr, align 8
  store ptr %heap, ptr %heap.addr, align 8
  %0 = load ptr, ptr %p.addr, align 8
  %cmp = icmp ne ptr %0, null
  br i1 %cmp, label %if.then, label %if.end4

if.then:                                          ; preds = %entry
  %1 = load ptr, ptr %p.addr, align 8
  %x = getelementptr inbounds %struct.ecc_point, ptr %1, i32 0, i32 0
  %arraydecay = getelementptr inbounds [1 x %struct.sp_int], ptr %x, i64 0, i64 0
  call void @sp_clear(ptr noundef %arraydecay)
  %2 = load ptr, ptr %p.addr, align 8
  %y = getelementptr inbounds %struct.ecc_point, ptr %2, i32 0, i32 1
  %arraydecay1 = getelementptr inbounds [1 x %struct.sp_int], ptr %y, i64 0, i64 0
  call void @sp_clear(ptr noundef %arraydecay1)
  %3 = load ptr, ptr %p.addr, align 8
  %z = getelementptr inbounds %struct.ecc_point, ptr %3, i32 0, i32 2
  %arraydecay2 = getelementptr inbounds [1 x %struct.sp_int], ptr %z, i64 0, i64 0
  call void @sp_clear(ptr noundef %arraydecay2)
  %4 = load ptr, ptr %p.addr, align 8
  store ptr %4, ptr %xp, align 8
  %5 = load ptr, ptr %xp, align 8
  %tobool = icmp ne ptr %5, null
  br i1 %tobool, label %if.then3, label %if.end

if.then3:                                         ; preds = %if.then
  %6 = load ptr, ptr %xp, align 8
  call void @wolfSSL_Free(ptr noundef %6)
  br label %if.end

if.end:                                           ; preds = %if.then3, %if.then
  br label %if.end4

if.end4:                                          ; preds = %if.end, %entry
  ret void
}

; Function Attrs: nounwind uwtable
define i32 @ecc_map(ptr noundef %P, ptr noundef %modulus, i64 noundef %mp) #0 {
entry:
  %P.addr = alloca ptr, align 8
  %modulus.addr = alloca ptr, align 8
  %mp.addr = alloca i64, align 8
  store ptr %P, ptr %P.addr, align 8
  store ptr %modulus, ptr %modulus.addr, align 8
  store i64 %mp, ptr %mp.addr, align 8
  %0 = load ptr, ptr %P.addr, align 8
  %1 = load ptr, ptr %modulus.addr, align 8
  %2 = load i64, ptr %mp.addr, align 8
  %call = call i32 @ecc_map_ex(ptr noundef %0, ptr noundef %1, i64 noundef %2, i32 noundef 0)
  ret i32 %call
}

; Function Attrs: nounwind uwtable
define internal i32 @wc_ecc_new_point_ex(ptr noundef %point, ptr noundef %heap) #0 {
entry:
  %retval = alloca i32, align 4
  %point.addr = alloca ptr, align 8
  %heap.addr = alloca ptr, align 8
  %err = alloca i32, align 4
  %p = alloca ptr, align 8
  %xp = alloca ptr, align 8
  store ptr %point, ptr %point.addr, align 8
  store ptr %heap, ptr %heap.addr, align 8
  store i32 0, ptr %err, align 4
  %0 = load ptr, ptr %point.addr, align 8
  %cmp = icmp eq ptr %0, null
  br i1 %cmp, label %if.then, label %if.end

if.then:                                          ; preds = %entry
  store i32 -173, ptr %retval, align 4
  br label %return

if.end:                                           ; preds = %entry
  %1 = load ptr, ptr %point.addr, align 8
  %2 = load ptr, ptr %1, align 8
  store ptr %2, ptr %p, align 8
  %3 = load ptr, ptr %p, align 8
  %cmp1 = icmp eq ptr %3, null
  br i1 %cmp1, label %if.then2, label %if.end3

if.then2:                                         ; preds = %if.end
  %call = call ptr @wolfSSL_Malloc(i64 noundef 3120)
  store ptr %call, ptr %p, align 8
  br label %if.end3

if.end3:                                          ; preds = %if.then2, %if.end
  %4 = load ptr, ptr %p, align 8
  %cmp4 = icmp eq ptr %4, null
  br i1 %cmp4, label %if.then5, label %if.end6

if.then5:                                         ; preds = %if.end3
  store i32 -125, ptr %retval, align 4
  br label %return

if.end6:                                          ; preds = %if.end3
  %5 = load ptr, ptr %p, align 8
  call void @llvm.memset.p0.i64(ptr align 8 %5, i8 0, i64 3120, i1 false)
  %6 = load ptr, ptr %p, align 8
  %x = getelementptr inbounds %struct.ecc_point, ptr %6, i32 0, i32 0
  %arraydecay = getelementptr inbounds [1 x %struct.sp_int], ptr %x, i64 0, i64 0
  %7 = load ptr, ptr %p, align 8
  %y = getelementptr inbounds %struct.ecc_point, ptr %7, i32 0, i32 1
  %arraydecay7 = getelementptr inbounds [1 x %struct.sp_int], ptr %y, i64 0, i64 0
  %8 = load ptr, ptr %p, align 8
  %z = getelementptr inbounds %struct.ecc_point, ptr %8, i32 0, i32 2
  %arraydecay8 = getelementptr inbounds [1 x %struct.sp_int], ptr %z, i64 0, i64 0
  %call9 = call i32 @sp_init_multi(ptr noundef %arraydecay, ptr noundef %arraydecay7, ptr noundef %arraydecay8, ptr noundef null, ptr noundef null, ptr noundef null)
  store i32 %call9, ptr %err, align 4
  %9 = load i32, ptr %err, align 4
  %cmp10 = icmp ne i32 %9, 0
  br i1 %cmp10, label %if.then11, label %if.end14

if.then11:                                        ; preds = %if.end6
  %10 = load ptr, ptr %p, align 8
  store ptr %10, ptr %xp, align 8
  %11 = load ptr, ptr %xp, align 8
  %tobool = icmp ne ptr %11, null
  br i1 %tobool, label %if.then12, label %if.end13

if.then12:                                        ; preds = %if.then11
  %12 = load ptr, ptr %xp, align 8
  call void @wolfSSL_Free(ptr noundef %12)
  br label %if.end13

if.end13:                                         ; preds = %if.then12, %if.then11
  %13 = load i32, ptr %err, align 4
  store i32 %13, ptr %retval, align 4
  br label %return

if.end14:                                         ; preds = %if.end6
  %14 = load ptr, ptr %p, align 8
  %15 = load ptr, ptr %point.addr, align 8
  store ptr %14, ptr %15, align 8
  %16 = load i32, ptr %err, align 4
  store i32 %16, ptr %retval, align 4
  br label %return

return:                                           ; preds = %if.end14, %if.end13, %if.then5, %if.then
  %17 = load i32, ptr %retval, align 4
  ret i32 %17
}

; Function Attrs: nounwind uwtable
define i32 @wc_ecc_mulmod_ex2(ptr noundef %k, ptr noundef %G, ptr noundef %R, ptr noundef %a, ptr noundef %modulus, ptr noundef %order, ptr noundef %rng, i32 noundef %map, ptr noundef %heap) #0 {
entry:
  %retval = alloca i32, align 4
  %k.addr = alloca ptr, align 8
  %G.addr = alloca ptr, align 8
  %R.addr = alloca ptr, align 8
  %a.addr = alloca ptr, align 8
  %modulus.addr = alloca ptr, align 8
  %order.addr = alloca ptr, align 8
  %rng.addr = alloca ptr, align 8
  %map.addr = alloca i32, align 4
  %heap.addr = alloca ptr, align 8
  %tG = alloca ptr, align 8
  %M = alloca [3 x ptr], align 16
  %i = alloca i32, align 4
  %err = alloca i32, align 4
  %mp = alloca i64, align 8
  store ptr %k, ptr %k.addr, align 8
  store ptr %G, ptr %G.addr, align 8
  store ptr %R, ptr %R.addr, align 8
  store ptr %a, ptr %a.addr, align 8
  store ptr %modulus, ptr %modulus.addr, align 8
  store ptr %order, ptr %order.addr, align 8
  store ptr %rng, ptr %rng.addr, align 8
  store i32 %map, ptr %map.addr, align 4
  store ptr %heap, ptr %heap.addr, align 8
  %0 = load ptr, ptr %k.addr, align 8
  %cmp = icmp eq ptr %0, null
  br i1 %cmp, label %if.then, label %lor.lhs.false

lor.lhs.false:                                    ; preds = %entry
  %1 = load ptr, ptr %G.addr, align 8
  %cmp1 = icmp eq ptr %1, null
  br i1 %cmp1, label %if.then, label %lor.lhs.false2

lor.lhs.false2:                                   ; preds = %lor.lhs.false
  %2 = load ptr, ptr %R.addr, align 8
  %cmp3 = icmp eq ptr %2, null
  br i1 %cmp3, label %if.then, label %lor.lhs.false4

lor.lhs.false4:                                   ; preds = %lor.lhs.false2
  %3 = load ptr, ptr %modulus.addr, align 8
  %cmp5 = icmp eq ptr %3, null
  br i1 %cmp5, label %if.then, label %if.end

if.then:                                          ; preds = %lor.lhs.false4, %lor.lhs.false2, %lor.lhs.false, %entry
  store i32 -170, ptr %retval, align 4
  br label %return

if.end:                                           ; preds = %lor.lhs.false4
  %4 = load ptr, ptr %k.addr, align 8
  %call = call i32 @sp_count_bits(ptr noundef %4)
  %5 = load ptr, ptr %order.addr, align 8
  %call6 = call i32 @sp_count_bits(ptr noundef %5)
  %cmp7 = icmp sgt i32 %call, %call6
  br i1 %cmp7, label %if.then8, label %if.end9

if.then8:                                         ; preds = %if.end
  store i32 -217, ptr %retval, align 4
  br label %return

if.end9:                                          ; preds = %if.end
  store ptr null, ptr %tG, align 8
  %arraydecay = getelementptr inbounds [3 x ptr], ptr %M, i64 0, i64 0
  call void @llvm.memset.p0.i64(ptr align 16 %arraydecay, i8 0, i64 24, i1 false)
  store i32 0, ptr %i, align 4
  br label %for.cond

for.cond:                                         ; preds = %for.inc, %if.end9
  %6 = load i32, ptr %i, align 4
  %cmp10 = icmp slt i32 %6, 3
  br i1 %cmp10, label %for.body, label %for.end

for.body:                                         ; preds = %for.cond
  %7 = load i32, ptr %i, align 4
  %idxprom = sext i32 %7 to i64
  %arrayidx = getelementptr inbounds [3 x ptr], ptr %M, i64 0, i64 %idxprom
  %8 = load ptr, ptr %heap.addr, align 8
  %call11 = call i32 @wc_ecc_new_point_ex(ptr noundef %arrayidx, ptr noundef %8)
  store i32 %call11, ptr %err, align 4
  %9 = load i32, ptr %err, align 4
  %cmp12 = icmp ne i32 %9, 0
  br i1 %cmp12, label %if.then13, label %if.end14

if.then13:                                        ; preds = %for.body
  br label %exit

if.end14:                                         ; preds = %for.body
  br label %for.inc

for.inc:                                          ; preds = %if.end14
  %10 = load i32, ptr %i, align 4
  %inc = add nsw i32 %10, 1
  store i32 %inc, ptr %i, align 4
  br label %for.cond, !llvm.loop !10

for.end:                                          ; preds = %for.cond
  %11 = load ptr, ptr %heap.addr, align 8
  %call15 = call i32 @wc_ecc_new_point_ex(ptr noundef %tG, ptr noundef %11)
  store i32 %call15, ptr %err, align 4
  %12 = load i32, ptr %err, align 4
  %cmp16 = icmp ne i32 %12, 0
  br i1 %cmp16, label %if.then17, label %if.end18

if.then17:                                        ; preds = %for.end
  br label %exit

if.end18:                                         ; preds = %for.end
  %13 = load ptr, ptr %G.addr, align 8
  %14 = load ptr, ptr %tG, align 8
  %15 = load ptr, ptr %modulus.addr, align 8
  %16 = load ptr, ptr %heap.addr, align 8
  %call19 = call i32 @ecc_point_to_mont(ptr noundef %13, ptr noundef %14, ptr noundef %15, ptr noundef %16)
  store i32 %call19, ptr %err, align 4
  %cmp20 = icmp ne i32 %call19, 0
  br i1 %cmp20, label %if.then21, label %if.end22

if.then21:                                        ; preds = %if.end18
  br label %exit

if.end22:                                         ; preds = %if.end18
  %17 = load ptr, ptr %modulus.addr, align 8
  %call23 = call i32 @sp_mont_setup(ptr noundef %17, ptr noundef %mp)
  store i32 %call23, ptr %err, align 4
  %cmp24 = icmp ne i32 %call23, 0
  br i1 %cmp24, label %if.then25, label %if.end26

if.then25:                                        ; preds = %if.end22
  br label %exit

if.end26:                                         ; preds = %if.end22
  %18 = load ptr, ptr %k.addr, align 8
  %19 = load ptr, ptr %tG, align 8
  %20 = load ptr, ptr %R.addr, align 8
  %arraydecay27 = getelementptr inbounds [3 x ptr], ptr %M, i64 0, i64 0
  %21 = load ptr, ptr %a.addr, align 8
  %22 = load ptr, ptr %modulus.addr, align 8
  %23 = load i64, ptr %mp, align 8
  %24 = load ptr, ptr %rng.addr, align 8
  %call28 = call i32 @ecc_mulmod(ptr noundef %18, ptr noundef %19, ptr noundef %20, ptr noundef %arraydecay27, ptr noundef %21, ptr noundef %22, i64 noundef %23, ptr noundef %24)
  store i32 %call28, ptr %err, align 4
  %25 = load i32, ptr %err, align 4
  %cmp29 = icmp eq i32 %25, 0
  br i1 %cmp29, label %if.then30, label %if.end32

if.then30:                                        ; preds = %if.end26
  %26 = load ptr, ptr %k.addr, align 8
  %27 = load ptr, ptr %tG, align 8
  %28 = load ptr, ptr %R.addr, align 8
  %29 = load ptr, ptr %modulus.addr, align 8
  %30 = load ptr, ptr %order.addr, align 8
  %call31 = call i32 @ecc_check_order_minus_1(ptr noundef %26, ptr noundef %27, ptr noundef %28, ptr noundef %29, ptr noundef %30)
  store i32 %call31, ptr %err, align 4
  br label %if.end32

if.end32:                                         ; preds = %if.then30, %if.end26
  %31 = load i32, ptr %err, align 4
  %cmp33 = icmp eq i32 %31, 0
  br i1 %cmp33, label %land.lhs.true, label %if.end36

land.lhs.true:                                    ; preds = %if.end32
  %32 = load i32, ptr %map.addr, align 4
  %tobool = icmp ne i32 %32, 0
  br i1 %tobool, label %if.then34, label %if.end36

if.then34:                                        ; preds = %land.lhs.true
  %33 = load ptr, ptr %R.addr, align 8
  %34 = load ptr, ptr %modulus.addr, align 8
  %35 = load i64, ptr %mp, align 8
  %call35 = call i32 @ecc_map(ptr noundef %33, ptr noundef %34, i64 noundef %35)
  store i32 %call35, ptr %err, align 4
  br label %if.end36

if.end36:                                         ; preds = %if.then34, %land.lhs.true, %if.end32
  br label %exit

exit:                                             ; preds = %if.end36, %if.then25, %if.then21, %if.then17, %if.then13
  %36 = load ptr, ptr %tG, align 8
  %37 = load ptr, ptr %heap.addr, align 8
  call void @wc_ecc_del_point_ex(ptr noundef %36, ptr noundef %37)
  store i32 0, ptr %i, align 4
  br label %for.cond37

for.cond37:                                       ; preds = %for.inc42, %exit
  %38 = load i32, ptr %i, align 4
  %cmp38 = icmp slt i32 %38, 3
  br i1 %cmp38, label %for.body39, label %for.end44

for.body39:                                       ; preds = %for.cond37
  %39 = load i32, ptr %i, align 4
  %idxprom40 = sext i32 %39 to i64
  %arrayidx41 = getelementptr inbounds [3 x ptr], ptr %M, i64 0, i64 %idxprom40
  %40 = load ptr, ptr %arrayidx41, align 8
  %41 = load ptr, ptr %heap.addr, align 8
  call void @wc_ecc_del_point_ex(ptr noundef %40, ptr noundef %41)
  br label %for.inc42

for.inc42:                                        ; preds = %for.body39
  %42 = load i32, ptr %i, align 4
  %inc43 = add nsw i32 %42, 1
  store i32 %inc43, ptr %i, align 4
  br label %for.cond37, !llvm.loop !11

for.end44:                                        ; preds = %for.cond37
  %43 = load i32, ptr %err, align 4
  store i32 %43, ptr %retval, align 4
  br label %return

return:                                           ; preds = %for.end44, %if.then8, %if.then
  %44 = load i32, ptr %retval, align 4
  ret i32 %44
}